target datalayout = "e-m:e-p270:32:32-p271:32:32-p272:64:64-i64:64-i128:128-f80:128-n8:16:32:64-S128"
target triple = "x86_64-unknown-linux-gnu"

%"class.icu_75::TextTrieMapSearchResultHandler" = type { ptr }
%"class.icu_75::TZDBNameSearchHandler" = type { %"class.icu_75::TextTrieMapSearchResultHandler", i32, i32, ptr, ptr }

; Function Attrs: mustprogress nounwind uwtable
define void @_ZN6icu_7530TextTrieMapSearchResultHandlerD2Ev(ptr noundef nonnull align 8 dereferenceable(8) %this) unnamed_addr #0 align 2 {
entry:
  %this.addr = alloca ptr, align 8
  store ptr %this, ptr %this.addr, align 8
  ret void
}

; Function Attrs: mustprogress nounwind uwtable
define void @_ZN6icu_7521TZDBNameSearchHandlerD2Ev(ptr noundef nonnull align 8 dereferenceable(32) %this) unnamed_addr #0 align 2 {
entry:
  %this.addr = alloca ptr, align 8
  store ptr %this, ptr %this.addr, align 8
  %this1 = load ptr, ptr %this.addr, align 8
  store ptr getelementptr inbounds ({ [5 x ptr] }, ptr @_ZTVN6icu_7521TZDBNameSearchHandlerE, i32 0, i32 0, i32 2), ptr %this1, align 8
  %fResults = getelementptr inbounds %"class.icu_75::TZDBNameSearchHandler", ptr %this1, i32 0, i32 3
  %0 = load ptr, ptr %fResults, align 8
  %cmp = icmp ne ptr %0, null
  br i1 %cmp, label %if.then, label %if.end

if.then:                                          ; preds = %entry
  %fResults2 = getelementptr inbounds %"class.icu_75::TZDBNameSearchHandler", ptr %this1, i32 0, i32 3
  %1 = load ptr, ptr %fResults2, align 8
  %isnull = icmp eq ptr %1, null
  br i1 %isnull, label %delete.end, label %delete.notnull

delete.notnull:                                   ; preds = %if.then
  %vtable = load ptr, ptr %1, align 8
  %vfn = getelementptr inbounds ptr, ptr %vtable, i64 1
  %2 = load ptr, ptr %vfn, align 8
  call void %2(ptr noundef nonnull align 8 dereferenceable(16) %1) #10
  br label %delete.end

delete.end:                                       ; preds = %delete.notnull, %if.then
  br label %if.end

if.end:                                           ; preds = %delete.end, %entry
  call void @_ZN6icu_7530TextTrieMapSearchResultHandlerD2Ev(ptr noundef nonnull align 8 dereferenceable(8) %this1) #10
  ret void
}